; Function Attrs: mustprogress uwtable
define noundef double @_ZNK8QuantLib21LocalVolTermStructure8localVolERKNS_4DateEdb(ptr noundef nonnull align 8 dereferenceable(68) %this, ptr noundef nonnull align 8 dereferenceable(8) %d, double noundef %underlyingLevel, i1 noundef zeroext %extrapolate) local_unnamed_addr #5 align 2 {
entry:
  tail call void @_ZNK8QuantLib13TermStructure10checkRangeERKNS_4DateEb(ptr noundef nonnull align 8 dereferenceable(64) %this, ptr noundef nonnull align 8 dereferenceable(8) %d, i1 noundef zeroext %extrapolate)
  tail call void @_ZNK8QuantLib23VolatilityTermStructure11checkStrikeEdb(ptr noundef nonnull align 8 dereferenceable(68) %this, double noundef %underlyingLevel, i1 noundef zeroext %extrapolate)
  %call = tail call noundef double @_ZNK8QuantLib13TermStructure17timeFromReferenceERKNS_4DateE(ptr noundef nonnull align 8 dereferenceable(64) %this, ptr noundef nonnull align 8 dereferenceable(8) %d)
  %vtable = load ptr, ptr %this, align 8, !tbaa !22
  %vfn = getelementptr inbounds i8, ptr %vtable, i64 104
  %0 = load ptr, ptr %vfn, align 8
  %call3 = tail call noundef double %0(ptr noundef nonnull align 8 dereferenceable(68) %this, double noundef %call, double noundef %underlyingLevel)
  ret double %call3
}